target datalayout = "e-m:e-p270:32:32-p271:32:32-p272:64:64-i64:64-i128:128-f80:128-n8:16:32:64-S128"
target triple = "x86_64-pc-linux-gnu"

%class.QString = type { %struct.QArrayDataPointer }
%struct.QArrayDataPointer = type { ptr, ptr, i64 }
%class.RtpAnalysisDialog = type { %class.WiresharkDialog.base, ptr, i32, %class.QList.1, %class.QMultiHash, ptr, %class.QList.5, %class.QString, %class.QMenu, %class.QMenu }
%class.WiresharkDialog.base = type <{ %class.GeometryStateDialog, ptr, i8, [7 x i8], %class.QString, %class.QList, i32, i8 }>
%class.GeometryStateDialog = type { %class.QDialog, %class.QString }
%class.QDialog = type { %class.QWidget }
%class.QWidget = type { %class.QObject, %class.QPaintDevice.base, ptr }
%class.QObject = type { ptr, %class.QScopedPointer }
%class.QScopedPointer = type { ptr }
%class.QPaintDevice.base = type <{ ptr, i16 }>
%class.QList = type { %struct.QArrayDataPointer.0 }
%struct.QArrayDataPointer.0 = type { ptr, ptr, i64 }
%class.QList.1 = type { %struct.QArrayDataPointer.4 }
%struct.QArrayDataPointer.4 = type { ptr, ptr, i64 }
%class.QMultiHash = type { ptr, i64 }
%class.QList.5 = type { %struct.QArrayDataPointer.8 }
%struct.QArrayDataPointer.8 = type { ptr, ptr, i64 }
%class.QMenu = type { %class.QWidget }
%struct.tab_info_t = type { %struct._rtpstream_info, ptr, ptr, ptr, ptr, ptr, ptr, ptr, ptr, ptr, ptr, ptr, ptr, ptr, ptr, ptr }
%struct._rtpstream_info = type { %struct._rtpstream_id, i8, ptr, [256 x ptr], ptr, i32, i32, i32, i32, i32, i32, ptr, ptr, %struct.nstime_t, %struct.nstime_t, %struct.nstime_t, i16, i32, i32, %struct._tap_rtp_stat_t, i32, ptr }
%struct._rtpstream_id = type { %struct._address, i16, %struct._address, i16, i32 }
%struct._address = type { i32, i32, ptr, ptr }
%struct.nstime_t = type { i64, i32 }
%struct._tap_rtp_stat_t = type { i32, i32, i16, i64, i64, double, [300 x %struct._bw_history_item], i16, i16, i32, i32, double, double, double, double, double, double, double, double, double, double, double, double, double, double, double, double, double, double, double, i32, i16, i16, i32, i32, i32, i32, i16, i32, i32, i32 }
%struct._bw_history_item = type { double, i32 }
%class.QBasicAtomicInteger = type { %"struct.std::atomic" }
%"struct.std::atomic" = type { %"struct.std::__atomic_base" }
%"struct.std::__atomic_base" = type { i32 }
%struct._packet_info = type { ptr, ptr, i32, i32, %struct.nstime_t, %struct.nstime_t, %struct.nstime_t, i32, ptr, ptr, ptr, ptr, %struct._address, %struct._address, %struct._address, %struct._address, %struct._address, %struct._address, i32, ptr, i32, %struct.anon.73, i32, i32, i32, i32, ptr, i32, ptr, ptr, i16, i16, i32, i32, i16, i32, i32, ptr, ptr, ptr, i8, i8, i16, i16, i16, i32, i16, i16, ptr, ptr, ptr, ptr, ptr, i32 }
%struct.anon.73 = type { i8, [3 x i8] }
%struct._frame_data = type { i32, i32, i32, i32, i64, ptr, ptr, ptr, i16, i16, %struct.nstime_t, %struct.nstime_t, i32, i32, i8 }
%struct._rtp_info = type { i32, i32, i32, i32, i32, i16, i32, i32, i64, i32, i32, i32, i32, i32, i32, i32, ptr, ptr, i32, i32, ptr, i32, ptr }
%struct.QArrayData = type { %class.QBasicAtomicInteger, %class.QFlags.97, i64 }
%class.QFlags.97 = type { i32 }

; Function Attrs: mustprogress nounwind uwtable
define linkonce_odr noundef i32 @_ZNSt13__atomic_baseIiEmmEv(ptr noundef nonnull align 4 dereferenceable(4) %0) #5 comdat align 2 {
  %2 = alloca ptr, align 8
  %3 = alloca i32, align 4
  %4 = alloca i32, align 4
  store ptr %0, ptr %2, align 8
  %5 = load ptr, ptr %2, align 8
  %6 = getelementptr inbounds %"struct.std::__atomic_base", ptr %5, i32 0, i32 0
  store i32 1, ptr %3, align 4
  %7 = load i32, ptr %3, align 4
  %8 = atomicrmw sub ptr %6, i32 %7 seq_cst, align 4
  %9 = sub i32 %8, %7
  store i32 %9, ptr %4, align 4
  %10 = load i32, ptr %4, align 4
  ret i32 %10
}

; Function Attrs: mustprogress nounwind uwtable
define linkonce_odr noundef zeroext i1 @_ZN10QAtomicOpsIiE5derefIiEEbRSt6atomicIT_E(ptr noundef nonnull align 4 dereferenceable(4) %0) #5 comdat align 2 {
  %2 = alloca ptr, align 8
  store ptr %0, ptr %2, align 8
  %3 = load ptr, ptr %2, align 8
  %4 = call noundef i32 @_ZNSt13__atomic_baseIiEmmEv(ptr noundef nonnull align 4 dereferenceable(4) %3) #18
  %5 = icmp ne i32 %4, 0
  ret i1 %5
}

; Function Attrs: mustprogress nounwind uwtable
define linkonce_odr noundef zeroext i1 @_ZN19QBasicAtomicIntegerIiE5derefEv(ptr noundef nonnull align 4 dereferenceable(4) %0) #5 comdat align 2 {
  %2 = alloca ptr, align 8
  store ptr %0, ptr %2, align 8
  %3 = load ptr, ptr %2, align 8
  %4 = getelementptr inbounds %class.QBasicAtomicInteger, ptr %3, i32 0, i32 0
  %5 = call noundef zeroext i1 @_ZN10QAtomicOpsIiE5derefIiEEbRSt6atomicIT_E(ptr noundef nonnull align 4 dereferenceable(4) %4) #18
  ret i1 %5
}

; Function Attrs: mustprogress nounwind uwtable
define linkonce_odr noundef zeroext i1 @_ZN10QArrayData5derefEv(ptr noundef nonnull align 8 dereferenceable(16) %0) #5 comdat align 2 {
  %2 = alloca ptr, align 8
  store ptr %0, ptr %2, align 8
  %3 = load ptr, ptr %2, align 8
  %4 = getelementptr inbounds %struct.QArrayData, ptr %3, i32 0, i32 0
  %5 = call noundef zeroext i1 @_ZN19QBasicAtomicIntegerIiE5derefEv(ptr noundef nonnull align 4 dereferenceable(4) %4) #18
  ret i1 %5
}

; Function Attrs: mustprogress nounwind uwtable
define linkonce_odr void @_ZN15QTypedArrayDataIP10tab_info_tE10deallocateEP10QArrayData(ptr noundef %0) #5 comdat align 2 {
  %2 = alloca ptr, align 8
  store ptr %0, ptr %2, align 8
  %3 = load ptr, ptr %2, align 8
  call void @_ZN10QArrayData10deallocateEPS_xx(ptr noundef %3, i64 noundef 8, i64 noundef 8) #18
  ret void
}

; Function Attrs: mustprogress nounwind uwtable
define linkonce_odr void @_ZN9QtPrivate12QPodArrayOpsIP10tab_info_tE10destroyAllEv(ptr noundef nonnull align 8 dereferenceable(24) %0) #5 comdat align 2 {
  %2 = alloca ptr, align 8
  store ptr %0, ptr %2, align 8
  ret void
}

; Function Attrs: mustprogress nounwind uwtable
define linkonce_odr noundef ptr @_ZN17QArrayDataPointerIP10tab_info_tEptEv(ptr noundef nonnull align 8 dereferenceable(24) %0) #5 comdat align 2 {
  %2 = alloca ptr, align 8
  store ptr %0, ptr %2, align 8
  %3 = load ptr, ptr %2, align 8
  ret ptr %3
}

; Function Attrs: mustprogress nounwind uwtable
define linkonce_odr noundef zeroext i1 @_ZN17QArrayDataPointerIP10tab_info_tE5derefEv(ptr noundef nonnull align 8 dereferenceable(24) %0) #5 comdat align 2 {
  %2 = alloca ptr, align 8
  store ptr %0, ptr %2, align 8
  %3 = load ptr, ptr %2, align 8
  %4 = getelementptr inbounds %struct.QArrayDataPointer.4, ptr %3, i32 0, i32 0
  %5 = load ptr, ptr %4, align 8
  %6 = icmp ne ptr %5, null
  br i1 %6, label %7, label %11

7:                                                ; preds = %1
  %8 = getelementptr inbounds %struct.QArrayDataPointer.4, ptr %3, i32 0, i32 0
  %9 = load ptr, ptr %8, align 8
  %10 = call noundef zeroext i1 @_ZN10QArrayData5derefEv(ptr noundef nonnull align 8 dereferenceable(16) %9) #18
  br label %11

11:                                               ; preds = %7, %1
  %12 = phi i1 [ true, %1 ], [ %10, %7 ]
  ret i1 %12
}

; Function Attrs: mustprogress nounwind uwtable
define linkonce_odr noundef ptr @_ZNK17QArrayDataPointerIP10tab_info_tE4dataEv(ptr noundef nonnull align 8 dereferenceable(24) %0) #5 comdat align 2 {
  %2 = alloca ptr, align 8
  store ptr %0, ptr %2, align 8
  %3 = load ptr, ptr %2, align 8
  %4 = getelementptr inbounds %struct.QArrayDataPointer.4, ptr %3, i32 0, i32 1
  %5 = load ptr, ptr %4, align 8
  ret ptr %5
}

; Function Attrs: mustprogress nounwind uwtable
define linkonce_odr void @_ZN17QArrayDataPointerIP10tab_info_tED2Ev(ptr noundef nonnull align 8 dereferenceable(24) %0) unnamed_addr #5 comdat align 2 {
  %2 = alloca ptr, align 8
  store ptr %0, ptr %2, align 8
  %3 = load ptr, ptr %2, align 8
  %4 = call noundef zeroext i1 @_ZN17QArrayDataPointerIP10tab_info_tE5derefEv(ptr noundef nonnull align 8 dereferenceable(24) %3) #18
  br i1 %4, label %9, label %5

5:                                                ; preds = %1
  %6 = call noundef ptr @_ZN17QArrayDataPointerIP10tab_info_tEptEv(ptr noundef nonnull align 8 dereferenceable(24) %3) #18
  call void @_ZN9QtPrivate12QPodArrayOpsIP10tab_info_tE10destroyAllEv(ptr noundef nonnull align 8 dereferenceable(24) %6) #18
  %7 = getelementptr inbounds %struct.QArrayDataPointer.4, ptr %3, i32 0, i32 0
  %8 = load ptr, ptr %7, align 8
  call void @_ZN15QTypedArrayDataIP10tab_info_tE10deallocateEP10QArrayData(ptr noundef %8) #18
  br label %9

9:                                                ; preds = %5, %1
  ret void
}

; Function Attrs: mustprogress nounwind uwtable
define linkonce_odr noundef ptr @_ZNK5QListIP10tab_info_tE4dataEv(ptr noundef nonnull align 8 dereferenceable(24) %0) #5 comdat align 2 {
  %2 = alloca ptr, align 8
  store ptr %0, ptr %2, align 8
  %3 = load ptr, ptr %2, align 8
  %4 = getelementptr inbounds %class.QList.1, ptr %3, i32 0, i32 0
  %5 = call noundef ptr @_ZNK17QArrayDataPointerIP10tab_info_tEptEv(ptr noundef nonnull align 8 dereferenceable(24) %4) #18
  %6 = call noundef ptr @_ZNK17QArrayDataPointerIP10tab_info_tE4dataEv(ptr noundef nonnull align 8 dereferenceable(24) %5) #18
  ret ptr %6
}

; Function Attrs: mustprogress nounwind uwtable
define linkonce_odr noundef ptr @_ZNK17QArrayDataPointerIP10tab_info_tEptEv(ptr noundef nonnull align 8 dereferenceable(24) %0) #5 comdat align 2 {
  %2 = alloca ptr, align 8
  store ptr %0, ptr %2, align 8
  %3 = load ptr, ptr %2, align 8
  ret ptr %3
}

; Function Attrs: mustprogress nounwind uwtable
define linkonce_odr void @_ZN5QListIP10tab_info_tED2Ev(ptr noundef nonnull align 8 dereferenceable(24) %0) unnamed_addr #5 comdat align 2 {
  %2 = alloca ptr, align 8
  store ptr %0, ptr %2, align 8
  %3 = load ptr, ptr %2, align 8
  %4 = getelementptr inbounds %class.QList.1, ptr %3, i32 0, i32 0
  call void @_ZN17QArrayDataPointerIP10tab_info_tED2Ev(ptr noundef nonnull align 8 dereferenceable(24) %4) #18
  ret void
}

; Function Attrs: mustprogress nounwind uwtable
define linkonce_odr noundef nonnull align 8 dereferenceable(8) ptr @_ZNK5QListIP10tab_info_tE2atEx(ptr noundef nonnull align 8 dereferenceable(24) %0, i64 noundef %1) #5 comdat align 2 {
  %3 = alloca ptr, align 8
  %4 = alloca i64, align 8
  store ptr %0, ptr %3, align 8
  store i64 %1, ptr %4, align 8
  %5 = load ptr, ptr %3, align 8
  %6 = call noundef ptr @_ZNK5QListIP10tab_info_tE4dataEv(ptr noundef nonnull align 8 dereferenceable(24) %5) #18
  %7 = load i64, ptr %4, align 8
  %8 = getelementptr ptr, ptr %6, i64 %7
  ret ptr %8
}

; Function Attrs: mustprogress nounwind uwtable
define linkonce_odr noundef i64 @_ZNK5QListIP10tab_info_tE4sizeEv(ptr noundef nonnull align 8 dereferenceable(24) %0) #5 comdat align 2 {
  %2 = alloca ptr, align 8
  store ptr %0, ptr %2, align 8
  %3 = load ptr, ptr %2, align 8
  %4 = getelementptr inbounds %class.QList.1, ptr %3, i32 0, i32 0
  %5 = call noundef ptr @_ZNK17QArrayDataPointerIP10tab_info_tEptEv(ptr noundef nonnull align 8 dereferenceable(24) %4) #18
  %6 = getelementptr inbounds %struct.QArrayDataPointer.4, ptr %5, i32 0, i32 2
  %7 = load i64, ptr %6, align 8
  ret i64 %7
}

; Function Attrs: mustprogress uwtable
define noundef i32 @_ZN17RtpAnalysisDialog9tapPacketEPvP12_packet_infoP12epan_dissectPKvj(ptr noundef %0, ptr noundef %1, ptr noundef %2, ptr noundef %3, i32 noundef %4) #0 align 2 personality ptr @__gxx_personality_v0 {
  %6 = alloca i32, align 4
  %7 = alloca ptr, align 8
  %8 = alloca ptr, align 8
  %9 = alloca ptr, align 8
  %10 = alloca ptr, align 8
  %11 = alloca i32, align 4
  %12 = alloca ptr, align 8
  %13 = alloca ptr, align 8
  %14 = alloca %class.QList.1, align 8
  %15 = alloca i32, align 4
  %16 = alloca i32, align 4
  %17 = alloca ptr, align 8
  %18 = alloca ptr, align 8
  %19 = alloca i32, align 4
  store ptr %0, ptr %7, align 8
  store ptr %1, ptr %8, align 8
  store ptr %2, ptr %9, align 8
  store ptr %3, ptr %10, align 8
  store i32 %4, ptr %11, align 4
  %20 = load ptr, ptr %7, align 8
  store ptr %20, ptr %12, align 8
  %21 = load ptr, ptr %12, align 8
  %22 = icmp ne ptr %21, null
  br i1 %22, label %24, label %23

23:                                               ; preds = %5
  store i32 0, ptr %6, align 4
  br label %86

24:                                               ; preds = %5
  %25 = load ptr, ptr %10, align 8
  store ptr %25, ptr %13, align 8
  %26 = load ptr, ptr %13, align 8
  %27 = icmp ne ptr %26, null
  br i1 %27, label %29, label %28

28:                                               ; preds = %24
  store i32 0, ptr %6, align 4
  br label %86

29:                                               ; preds = %24
  %30 = load ptr, ptr %8, align 8
  %31 = getelementptr inbounds %struct._packet_info, ptr %30, i32 0, i32 8
  %32 = load ptr, ptr %31, align 8
  %33 = getelementptr inbounds %struct._frame_data, ptr %32, i32 0, i32 9
  %34 = load i16, ptr %33, align 2
  %35 = and i16 %34, 1
  %36 = zext i16 %35 to i32
  %37 = icmp eq i32 %36, 0
  br i1 %37, label %38, label %39

38:                                               ; preds = %29
  store i32 0, ptr %6, align 4
  br label %86

39:                                               ; preds = %29
  %40 = load ptr, ptr %13, align 8
  %41 = getelementptr inbounds %struct._rtp_info, ptr %40, i32 0, i32 0
  %42 = load i32, ptr %41, align 8
  %43 = icmp ne i32 %42, 2
  br i1 %43, label %44, label %45

44:                                               ; preds = %39
  store i32 0, ptr %6, align 4
  br label %86

45:                                               ; preds = %39
  %46 = load ptr, ptr %12, align 8
  %47 = getelementptr inbounds %class.RtpAnalysisDialog, ptr %46, i32 0, i32 4
  %48 = load ptr, ptr %8, align 8
  %49 = load ptr, ptr %13, align 8
  %50 = call i32 @pinfo_rtp_info_to_hash(ptr noundef %48, ptr noundef %49)
  store i32 %50, ptr %15, align 4
  call void @_ZNK10QMultiHashIjP10tab_info_tE6valuesERKj(ptr dead_on_unwind writable sret(%class.QList.1) align 8 %14, ptr noundef nonnull align 8 dereferenceable(16) %47, ptr noundef nonnull align 4 dereferenceable(4) %15)
  store i32 0, ptr %16, align 4
  br label %51

51:                                               ; preds = %80, %45
  %52 = load i32, ptr %16, align 4
  %53 = sext i32 %52 to i64
  %54 = call noundef i64 @_ZNK5QListIP10tab_info_tE4sizeEv(ptr noundef nonnull align 8 dereferenceable(24) %14) #18
  %55 = icmp slt i64 %53, %54
  br i1 %55, label %56, label %83

56:                                               ; preds = %51
  %57 = load i32, ptr %16, align 4
  %58 = sext i32 %57 to i64
  %59 = call noundef nonnull align 8 dereferenceable(8) ptr @_ZNK5QListIP10tab_info_tE2atEx(ptr noundef nonnull align 8 dereferenceable(24) %14, i64 noundef %58) #18
  %60 = load ptr, ptr %59, align 8
  store ptr %60, ptr %17, align 8
  %61 = load ptr, ptr %17, align 8
  %62 = getelementptr inbounds %struct.tab_info_t, ptr %61, i32 0, i32 0
  %63 = getelementptr inbounds %struct._rtpstream_info, ptr %62, i32 0, i32 0
  %64 = load ptr, ptr %8, align 8
  %65 = load ptr, ptr %13, align 8
  %66 = invoke i32 @rtpstream_id_equal_pinfo_rtp_info(ptr noundef %63, ptr noundef %64, ptr noundef %65)
          to label %67 unwind label %75

67:                                               ; preds = %56
  %68 = icmp ne i32 %66, 0
  br i1 %68, label %69, label %79

69:                                               ; preds = %67
  %70 = load ptr, ptr %12, align 8
  %71 = load ptr, ptr %17, align 8
  %72 = load ptr, ptr %8, align 8
  %73 = load ptr, ptr %13, align 8
  invoke void @_ZN17RtpAnalysisDialog9addPacketEP10tab_info_tP12_packet_infoPK9_rtp_info(ptr noundef nonnull align 8 dereferenceable(328) %70, ptr noundef %71, ptr noundef %72, ptr noundef %73)
          to label %74 unwind label %75

74:                                               ; preds = %69
  br label %83

75:                                               ; preds = %69, %56
  %76 = landingpad { ptr, i32 }
          cleanup
  %77 = extractvalue { ptr, i32 } %76, 0
  store ptr %77, ptr %18, align 8
  %78 = extractvalue { ptr, i32 } %76, 1
  store i32 %78, ptr %19, align 4
  call void @_ZN5QListIP10tab_info_tED2Ev(ptr noundef nonnull align 8 dereferenceable(24) %14) #18
  br label %88

79:                                               ; preds = %67
  br label %80

80:                                               ; preds = %79
  %81 = load i32, ptr %16, align 4
  %82 = add i32 %81, 1
  store i32 %82, ptr %16, align 4
  br label %51, !llvm.loop !15

83:                                               ; preds = %74, %51
  call void @_ZN5QListIP10tab_info_tED2Ev(ptr noundef nonnull align 8 dereferenceable(24) %14) #18
  br label %84

84:                                               ; preds = %83
  br label %85

85:                                               ; preds = %84
  store i32 0, ptr %6, align 4
  br label %86

86:                                               ; preds = %85, %44, %38, %28, %23
  %87 = load i32, ptr %6, align 4
  ret i32 %87

88:                                               ; preds = %75
  %89 = load ptr, ptr %18, align 8
  %90 = load i32, ptr %19, align 4
  %91 = insertvalue { ptr, i32 } poison, ptr %89, 0
  %92 = insertvalue { ptr, i32 } %91, i32 %90, 1
  resume { ptr, i32 } %92
}