; Function Attrs: mustprogress uwtable
define noundef i32 @_ZN17RtpAnalysisDialog9tapPacketEPvP12_packet_infoP12epan_dissectPKvj(ptr noundef %0, ptr noundef %1, ptr nocapture readnone %2, ptr noundef %3, i32 %4) #0 align 2 personality ptr @__gxx_personality_v0 {
  %6 = alloca %class.QList.1, align 8
  %7 = alloca i32, align 4
  %.not = icmp eq ptr %0, null
  %.not24 = icmp eq ptr %3, null
  %or.cond = or i1 %.not, %.not24
  br i1 %or.cond, label %_ZN5QListIP10tab_info_tED2Ev.exit30, label %8

8:                                                ; preds = %5
  %9 = getelementptr inbounds i8, ptr %1, i64 80
  %10 = load ptr, ptr %9, align 8
  %11 = getelementptr inbounds i8, ptr %10, i64 50
  %12 = load i16, ptr %11, align 2
  %13 = and i16 %12, 1
  %14 = icmp eq i16 %13, 0
  br i1 %14, label %_ZN5QListIP10tab_info_tED2Ev.exit30, label %15

15:                                               ; preds = %8
  %16 = load i32, ptr %3, align 8
  %.not25 = icmp eq i32 %16, 2
  br i1 %.not25, label %17, label %_ZN5QListIP10tab_info_tED2Ev.exit30

17:                                               ; preds = %15
  %18 = getelementptr inbounds i8, ptr %0, i64 176
  %19 = tail call i32 @pinfo_rtp_info_to_hash(ptr noundef nonnull %1, ptr noundef nonnull %3)
  store i32 %19, ptr %7, align 4
  call void @_ZNK10QMultiHashIjP10tab_info_tE6valuesERKj(ptr dead_on_unwind nonnull writable sret(%class.QList.1) align 8 %6, ptr noundef nonnull align 8 dereferenceable(16) %18, ptr noundef nonnull align 4 dereferenceable(4) %7)
  %20 = getelementptr inbounds i8, ptr %6, i64 16
  %21 = load i64, ptr %20, align 8
  %22 = icmp sgt i64 %21, 0
  br i1 %22, label %.lr.ph, label %.loopexit

.lr.ph:                                           ; preds = %17
  %23 = getelementptr inbounds i8, ptr %6, i64 8
  br label %29

24:                                               ; preds = %35
  %25 = add i32 %.02133, 1
  %26 = sext i32 %25 to i64
  %27 = load i64, ptr %20, align 8
  %28 = icmp sgt i64 %27, %26
  br i1 %28, label %29, label %.loopexit, !llvm.loop !38

29:                                               ; preds = %.lr.ph, %24
  %30 = phi i64 [ 0, %.lr.ph ], [ %26, %24 ]
  %.02133 = phi i32 [ 0, %.lr.ph ], [ %25, %24 ]
  %31 = load ptr, ptr %23, align 8
  %32 = getelementptr ptr, ptr %31, i64 %30
  %33 = load ptr, ptr %32, align 8
  %34 = invoke i32 @rtpstream_id_equal_pinfo_rtp_info(ptr noundef %33, ptr noundef %1, ptr noundef nonnull %3)
          to label %35 unwind label %.loopexit31

35:                                               ; preds = %29
  %.not26 = icmp eq i32 %34, 0
  br i1 %.not26, label %24, label %36

36:                                               ; preds = %35
  invoke void @_ZN17RtpAnalysisDialog9addPacketEP10tab_info_tP12_packet_infoPK9_rtp_info(ptr nonnull align 8 poison, ptr noundef %33, ptr noundef %1, ptr noundef nonnull %3)
          to label %.loopexit unwind label %.loopexit.split-lp

.loopexit31:                                      ; preds = %29
  %lpad.loopexit = landingpad { ptr, i32 }
          cleanup
  br label %37

.loopexit.split-lp:                               ; preds = %36
  %lpad.loopexit.split-lp = landingpad { ptr, i32 }
          cleanup
  br label %37

37:                                               ; preds = %.loopexit.split-lp, %.loopexit31
  %lpad.phi = phi { ptr, i32 } [ %lpad.loopexit, %.loopexit31 ], [ %lpad.loopexit.split-lp, %.loopexit.split-lp ]
  %38 = load ptr, ptr %6, align 8
  %.not.i.i.i = icmp eq ptr %38, null
  br i1 %.not.i.i.i, label %_ZN5QListIP10tab_info_tED2Ev.exit, label %_ZN17QArrayDataPointerIP10tab_info_tE5derefEv.exit.i.i

_ZN17QArrayDataPointerIP10tab_info_tE5derefEv.exit.i.i: ; preds = %37
  %39 = atomicrmw sub ptr %38, i32 1 seq_cst, align 4
  %.not.i.i = icmp eq i32 %39, 1
  br i1 %.not.i.i, label %40, label %_ZN5QListIP10tab_info_tED2Ev.exit

40:                                               ; preds = %_ZN17QArrayDataPointerIP10tab_info_tE5derefEv.exit.i.i
  %41 = load ptr, ptr %6, align 8
  call void @_ZN10QArrayData10deallocateEPS_xx(ptr noundef %41, i64 noundef 8, i64 noundef 8) #19
  br label %_ZN5QListIP10tab_info_tED2Ev.exit

_ZN5QListIP10tab_info_tED2Ev.exit:                ; preds = %37, %_ZN17QArrayDataPointerIP10tab_info_tE5derefEv.exit.i.i, %40
  resume { ptr, i32 } %lpad.phi

.loopexit:                                        ; preds = %24, %17, %36
  %42 = load ptr, ptr %6, align 8
  %.not.i.i.i27 = icmp eq ptr %42, null
  br i1 %.not.i.i.i27, label %_ZN5QListIP10tab_info_tED2Ev.exit30, label %_ZN17QArrayDataPointerIP10tab_info_tE5derefEv.exit.i.i28

_ZN17QArrayDataPointerIP10tab_info_tE5derefEv.exit.i.i28: ; preds = %.loopexit
  %43 = atomicrmw sub ptr %42, i32 1 seq_cst, align 4
  %.not.i.i29 = icmp eq i32 %43, 1
  br i1 %.not.i.i29, label %44, label %_ZN5QListIP10tab_info_tED2Ev.exit30

44:                                               ; preds = %_ZN17QArrayDataPointerIP10tab_info_tE5derefEv.exit.i.i28
  %45 = load ptr, ptr %6, align 8
  call void @_ZN10QArrayData10deallocateEPS_xx(ptr noundef %45, i64 noundef 8, i64 noundef 8) #19
  br label %_ZN5QListIP10tab_info_tED2Ev.exit30

_ZN5QListIP10tab_info_tED2Ev.exit30:              ; preds = %44, %_ZN17QArrayDataPointerIP10tab_info_tE5derefEv.exit.i.i28, %.loopexit, %15, %8, %5
  ret i32 0
}